target datalayout = "e-m:e-p270:32:32-p271:32:32-p272:64:64-i64:64-i128:128-f80:128-n8:16:32:64-S128"
target triple = "x86_64-pc-linux-gnu"

%struct._object = type { %union.anon, ptr }
%union.anon = type { i64 }
%struct.PyPickleBufferObject = type { %struct._object, %struct.Py_buffer, ptr }
%struct.Py_buffer = type { ptr, ptr, i64, i64, i32, i32, ptr, ptr, ptr, ptr, ptr }

@PyExc_ValueError = external global ptr, align 8
@.str.1 = private unnamed_addr constant [52 x i8] c"operation forbidden on released PickleBuffer object\00", align 1

; Function Attrs: nounwind uwtable
define internal i32 @picklebuf_getbuf(ptr noundef %0, ptr noundef %1, i32 noundef %2) #0 {
  %4 = alloca i32, align 4
  %5 = alloca ptr, align 8
  %6 = alloca ptr, align 8
  %7 = alloca i32, align 4
  store ptr %0, ptr %5, align 8, !tbaa !22
  store ptr %1, ptr %6, align 8, !tbaa !22
  store i32 %2, ptr %7, align 4, !tbaa !32
  %8 = load ptr, ptr %5, align 8, !tbaa !22
  %9 = getelementptr inbounds nuw %struct.PyPickleBufferObject, ptr %8, i32 0, i32 1
  %10 = getelementptr inbounds nuw %struct.Py_buffer, ptr %9, i32 0, i32 1
  %11 = load ptr, ptr %10, align 8, !tbaa !23
  %12 = icmp eq ptr %11, null
  br i1 %12, label %13, label %15

13:                                               ; preds = %3
  %14 = load ptr, ptr @PyExc_ValueError, align 8, !tbaa !4
  call void @PyErr_SetString(ptr noundef %14, ptr noundef @.str.1)
  store i32 -1, ptr %4, align 4
  br label %23

15:                                               ; preds = %3
  %16 = load ptr, ptr %5, align 8, !tbaa !22
  %17 = getelementptr inbounds nuw %struct.PyPickleBufferObject, ptr %16, i32 0, i32 1
  %18 = getelementptr inbounds nuw %struct.Py_buffer, ptr %17, i32 0, i32 1
  %19 = load ptr, ptr %18, align 8, !tbaa !23
  %20 = load ptr, ptr %6, align 8, !tbaa !22
  %21 = load i32, ptr %7, align 4, !tbaa !32
  %22 = call i32 @PyObject_GetBuffer(ptr noundef %19, ptr noundef %20, i32 noundef %21)
  store i32 %22, ptr %4, align 4
  br label %23

23:                                               ; preds = %15, %13
  %24 = load i32, ptr %4, align 4
  ret i32 %24
}