; Function Attrs: nounwind uwtable
define internal i32 @picklebuf_getbuf(ptr noundef readonly captures(none) %0, ptr noundef %1, i32 noundef %2) #0 {
  %4 = getelementptr inbounds nuw i8, ptr %0, i64 24
  %5 = load ptr, ptr %4, align 8, !tbaa !20
  %6 = icmp eq ptr %5, null
  br i1 %6, label %7, label %9

7:                                                ; preds = %3
  %8 = load ptr, ptr @PyExc_ValueError, align 8, !tbaa !27
  tail call void @PyErr_SetString(ptr noundef %8, ptr noundef nonnull @.str.1) #5
  br label %11

9:                                                ; preds = %3
  %10 = tail call i32 @PyObject_GetBuffer(ptr noundef nonnull %5, ptr noundef %1, i32 noundef %2) #5
  br label %11

11:                                               ; preds = %9, %7
  %.0 = phi i32 [ -1, %7 ], [ %10, %9 ]
  ret i32 %.0
}